target datalayout = "e-m:e-p270:32:32-p271:32:32-p272:64:64-i64:64-i128:128-f80:128-n8:16:32:64-S128"
target triple = "x86_64-unknown-linux-gnu"

%"struct.absl::cord_internal::CordRep" = type { i64, %"class.absl::cord_internal::RefcountAndFlags", i8, [3 x i8] }
%"class.absl::cord_internal::RefcountAndFlags" = type { %"struct.std::atomic.15" }
%"struct.std::atomic.15" = type { %"struct.std::__atomic_base.16" }
%"struct.std::__atomic_base.16" = type { i32 }
%"struct.absl::cord_internal::CordRepSubstring" = type { %"struct.absl::cord_internal::CordRep", i64, ptr }
%"class.absl::cord_internal::CordRepBtree" = type { %"struct.absl::cord_internal::CordRep", [6 x ptr] }
%"class.absl::Span" = type { ptr, i64 }

; Function Attrs: mustprogress nounwind uwtable
define linkonce_odr dso_local noundef i64 @_ZNK4absl13cord_internal12CordRepBtree3endEv(ptr noundef nonnull align 8 dereferenceable(64) %this) #7 comdat align 2 {
entry:
  %this.addr = alloca ptr, align 8
  store ptr %this, ptr %this.addr, align 8
  %this1 = load ptr, ptr %this.addr, align 8
  %storage = getelementptr inbounds %"struct.absl::cord_internal::CordRep", ptr %this1, i32 0, i32 3
  %arrayidx = getelementptr inbounds [3 x i8], ptr %storage, i64 0, i64 2
  %0 = load i8, ptr %arrayidx, align 1
  %conv = zext i8 %0 to i64
  ret i64 %conv
}

; Function Attrs: mustprogress nounwind uwtable
define linkonce_odr dso_local noundef i64 @_ZN4absl13cord_internal18TagToAllocatedSizeEh(i8 noundef zeroext %tag) #7 comdat {
entry:
  %tag.addr = alloca i8, align 1
  store i8 %tag, ptr %tag.addr, align 1
  %0 = load i8, ptr %tag.addr, align 1
  %conv = zext i8 %0 to i32
  %cmp = icmp sle i32 %conv, 66
  br i1 %cmp, label %cond.true, label %cond.false

cond.true:                                        ; preds = %entry
  %1 = load i8, ptr %tag.addr, align 1
  %conv1 = zext i8 %1 to i32
  %mul = mul nsw i32 %conv1, 8
  %sub = sub nsw i32 %mul, 16
  br label %cond.end15

cond.false:                                       ; preds = %entry
  %2 = load i8, ptr %tag.addr, align 1
  %conv2 = zext i8 %2 to i32
  %cmp3 = icmp sle i32 %conv2, 186
  br i1 %cmp3, label %cond.true4, label %cond.false9

cond.true4:                                       ; preds = %cond.false
  %3 = load i8, ptr %tag.addr, align 1
  %conv5 = zext i8 %3 to i32
  %mul6 = mul nsw i32 %conv5, 64
  %add = add nsw i32 512, %mul6
  %sub7 = sub nsw i32 %add, 128
  %sub8 = sub nsw i32 %sub7, 4096
  br label %cond.end

cond.false9:                                      ; preds = %cond.false
  %4 = load i8, ptr %tag.addr, align 1
  %conv10 = zext i8 %4 to i32
  %mul11 = mul nsw i32 %conv10, 4096
  %add12 = add nsw i32 8192, %mul11
  %sub13 = sub nsw i32 %add12, 8192
  %sub14 = sub nsw i32 %sub13, 753664
  br label %cond.end

cond.end:                                         ; preds = %cond.false9, %cond.true4
  %cond = phi i32 [ %sub8, %cond.true4 ], [ %sub14, %cond.false9 ]
  br label %cond.end15

cond.end15:                                       ; preds = %cond.end, %cond.true
  %cond16 = phi i32 [ %sub, %cond.true ], [ %cond, %cond.end ]
  %conv17 = sext i32 %cond16 to i64
  ret i64 %conv17
}

; Function Attrs: mustprogress nounwind uwtable
define linkonce_odr dso_local noundef i64 @_ZNK4absl4SpanIKPNS_13cord_internal7CordRepEE4sizeEv(ptr noundef nonnull align 8 dereferenceable(16) %this) #7 comdat align 2 {
entry:
  %this.addr = alloca ptr, align 8
  store ptr %this, ptr %this.addr, align 8
  %this1 = load ptr, ptr %this.addr, align 8
  %len_ = getelementptr inbounds %"class.absl::Span", ptr %this1, i32 0, i32 1
  %0 = load i64, ptr %len_, align 8
  ret i64 %0
}

; Function Attrs: mustprogress nounwind uwtable
define linkonce_odr dso_local noundef ptr @_ZNK4absl4SpanIKPNS_13cord_internal7CordRepEE4dataEv(ptr noundef nonnull align 8 dereferenceable(16) %this) #7 comdat align 2 {
entry:
  %this.addr = alloca ptr, align 8
  store ptr %this, ptr %this.addr, align 8
  %this1 = load ptr, ptr %this.addr, align 8
  %ptr_ = getelementptr inbounds %"class.absl::Span", ptr %this1, i32 0, i32 0
  %0 = load ptr, ptr %ptr_, align 8
  ret ptr %0
}

; Function Attrs: mustprogress nounwind uwtable
define linkonce_odr dso_local void @_ZN4absl4SpanIKPNS_13cord_internal7CordRepEEC2EPS4_m(ptr noundef nonnull align 8 dereferenceable(16) %this, ptr noundef %array, i64 noundef %length) unnamed_addr #7 comdat align 2 {
entry:
  %this.addr = alloca ptr, align 8
  %array.addr = alloca ptr, align 8
  %length.addr = alloca i64, align 8
  store ptr %this, ptr %this.addr, align 8
  store ptr %array, ptr %array.addr, align 8
  store i64 %length, ptr %length.addr, align 8
  %this1 = load ptr, ptr %this.addr, align 8
  %ptr_ = getelementptr inbounds %"class.absl::Span", ptr %this1, i32 0, i32 0
  %0 = load ptr, ptr %array.addr, align 8
  store ptr %0, ptr %ptr_, align 8
  %len_ = getelementptr inbounds %"class.absl::Span", ptr %this1, i32 0, i32 1
  %1 = load i64, ptr %length.addr, align 8
  store i64 %1, ptr %len_, align 8
  ret void
}

; Function Attrs: mustprogress uwtable
define linkonce_odr dso_local noundef i64 @_ZNK4absl13cord_internal12CordRepBtree4sizeEv(ptr noundef nonnull align 8 dereferenceable(64) %this) #4 comdat align 2 {
entry:
  %this.addr = alloca ptr, align 8
  store ptr %this, ptr %this.addr, align 8
  %this1 = load ptr, ptr %this.addr, align 8
  %call = call noundef i64 @_ZNK4absl13cord_internal12CordRepBtree3endEv(ptr noundef nonnull align 8 dereferenceable(64) %this1)
  %call2 = call noundef i64 @_ZNK4absl13cord_internal12CordRepBtree5beginEv(ptr noundef nonnull align 8 dereferenceable(64) %this1)
  %sub = sub i64 %call, %call2
  ret i64 %sub
}

; Function Attrs: mustprogress nounwind uwtable
define linkonce_odr dso_local noundef i64 @_ZNK4absl13cord_internal12CordRepBtree5beginEv(ptr noundef nonnull align 8 dereferenceable(64) %this) #7 comdat align 2 {
entry:
  %this.addr = alloca ptr, align 8
  store ptr %this, ptr %this.addr, align 8
  %this1 = load ptr, ptr %this.addr, align 8
  %storage = getelementptr inbounds %"struct.absl::cord_internal::CordRep", ptr %this1, i32 0, i32 3
  %arrayidx = getelementptr inbounds [3 x i8], ptr %storage, i64 0, i64 1
  %0 = load i8, ptr %arrayidx, align 1
  %conv = zext i8 %0 to i64
  ret i64 %conv
}

; Function Attrs: mustprogress uwtable
define linkonce_odr dso_local noundef i64 @_ZNK4absl13cord_internal11CordRepFlat13AllocatedSizeEv(ptr noundef nonnull align 8 dereferenceable(16) %this) #4 comdat align 2 {
entry:
  %this.addr = alloca ptr, align 8
  store ptr %this, ptr %this.addr, align 8
  %this1 = load ptr, ptr %this.addr, align 8
  %tag = getelementptr inbounds %"struct.absl::cord_internal::CordRep", ptr %this1, i32 0, i32 2
  %0 = load i8, ptr %tag, align 4
  %call = call noundef i64 @_ZN4absl13cord_internal18TagToAllocatedSizeEh(i8 noundef zeroext %0)
  ret i64 %call
}

; Function Attrs: mustprogress nounwind uwtable
define linkonce_odr dso_local noundef i32 @_ZStanSt12memory_orderSt23__memory_order_modifier(i32 noundef %__m, i32 noundef %__mod) #7 comdat {
entry:
  %__m.addr = alloca i32, align 4
  %__mod.addr = alloca i32, align 4
  store i32 %__m, ptr %__m.addr, align 4
  store i32 %__mod, ptr %__mod.addr, align 4
  %0 = load i32, ptr %__m.addr, align 4
  %1 = load i32, ptr %__mod.addr, align 4
  %and = and i32 %0, %1
  ret i32 %and
}

; Function Attrs: mustprogress nounwind uwtable
define linkonce_odr dso_local noundef ptr @_ZNK4absl4SpanIKPNS_13cord_internal7CordRepEE3endEv(ptr noundef nonnull align 8 dereferenceable(16) %this) #7 comdat align 2 {
entry:
  %this.addr = alloca ptr, align 8
  store ptr %this, ptr %this.addr, align 8
  %this1 = load ptr, ptr %this.addr, align 8
  %call = call noundef ptr @_ZNK4absl4SpanIKPNS_13cord_internal7CordRepEE4dataEv(ptr noundef nonnull align 8 dereferenceable(16) %this1) #3
  %call2 = call noundef i64 @_ZNK4absl4SpanIKPNS_13cord_internal7CordRepEE4sizeEv(ptr noundef nonnull align 8 dereferenceable(16) %this1) #3
  %add.ptr = getelementptr inbounds ptr, ptr %call, i64 %call2
  ret ptr %add.ptr
}

; Function Attrs: mustprogress nounwind uwtable
define linkonce_odr dso_local noundef ptr @_ZNK4absl4SpanIKPNS_13cord_internal7CordRepEE5beginEv(ptr noundef nonnull align 8 dereferenceable(16) %this) #7 comdat align 2 {
entry:
  %this.addr = alloca ptr, align 8
  store ptr %this, ptr %this.addr, align 8
  %this1 = load ptr, ptr %this.addr, align 8
  %call = call noundef ptr @_ZNK4absl4SpanIKPNS_13cord_internal7CordRepEE4dataEv(ptr noundef nonnull align 8 dereferenceable(16) %this1) #3
  ret ptr %call
}

; Function Attrs: mustprogress uwtable
define linkonce_odr dso_local { ptr, i64 } @_ZNK4absl13cord_internal12CordRepBtree5EdgesEv(ptr noundef nonnull align 8 dereferenceable(64) %this) #4 comdat align 2 {
entry:
  %retval = alloca %"class.absl::Span", align 8
  %this.addr = alloca ptr, align 8
  store ptr %this, ptr %this.addr, align 8
  %this1 = load ptr, ptr %this.addr, align 8
  %edges_ = getelementptr inbounds %"class.absl::cord_internal::CordRepBtree", ptr %this1, i32 0, i32 1
  %arraydecay = getelementptr inbounds [6 x ptr], ptr %edges_, i64 0, i64 0
  %call = call noundef i64 @_ZNK4absl13cord_internal12CordRepBtree5beginEv(ptr noundef nonnull align 8 dereferenceable(64) %this1)
  %add.ptr = getelementptr inbounds ptr, ptr %arraydecay, i64 %call
  %call2 = call noundef i64 @_ZNK4absl13cord_internal12CordRepBtree4sizeEv(ptr noundef nonnull align 8 dereferenceable(64) %this1)
  call void @_ZN4absl4SpanIKPNS_13cord_internal7CordRepEEC2EPS4_m(ptr noundef nonnull align 8 dereferenceable(16) %retval, ptr noundef %add.ptr, i64 noundef %call2) #3
  %0 = load { ptr, i64 }, ptr %retval, align 8
  ret { ptr, i64 } %0
}

; Function Attrs: mustprogress nounwind uwtable
define internal noundef i64 @_ZN4absl13cord_internal12_GLOBAL__N_16SizeOfINS0_12CordRepBtreeEEEmPKT_(ptr noundef %rep) #7 {
entry:
  %rep.addr = alloca ptr, align 8
  store ptr %rep, ptr %rep.addr, align 8
  ret i64 64
}

; Function Attrs: mustprogress nounwind uwtable
define linkonce_odr dso_local noundef ptr @_ZN4absl13cord_internal7CordRep5btreeEv(ptr noundef nonnull align 8 dereferenceable(16) %this) #7 comdat align 2 {
entry:
  %this.addr = alloca ptr, align 8
  store ptr %this, ptr %this.addr, align 8
  %this1 = load ptr, ptr %this.addr, align 8
  ret ptr %this1
}

; Function Attrs: mustprogress nounwind uwtable
define internal noundef i64 @_ZN4absl13cord_internal12_GLOBAL__N_16SizeOfINS0_16CordRepSubstringEEEmPKT_(ptr noundef %rep) #7 {
entry:
  %rep.addr = alloca ptr, align 8
  store ptr %rep, ptr %rep.addr, align 8
  ret i64 32
}

; Function Attrs: mustprogress nounwind uwtable
define linkonce_odr dso_local noundef ptr @_ZN4absl13cord_internal7CordRep9substringEv(ptr noundef nonnull align 8 dereferenceable(16) %this) #7 comdat align 2 {
entry:
  %this.addr = alloca ptr, align 8
  store ptr %this, ptr %this.addr, align 8
  %this1 = load ptr, ptr %this.addr, align 8
  ret ptr %this1
}

; Function Attrs: mustprogress nounwind uwtable
define internal noundef i64 @_ZN4absl13cord_internal12_GLOBAL__N_16SizeOfINS0_15CordRepExternalEEEmPKT_(ptr noundef %rep) #7 {
entry:
  %rep.addr = alloca ptr, align 8
  store ptr %rep, ptr %rep.addr, align 8
  %0 = load ptr, ptr %rep.addr, align 8
  %length = getelementptr inbounds %"struct.absl::cord_internal::CordRep", ptr %0, i32 0, i32 0
  %1 = load i64, ptr %length, align 8
  %add = add i64 40, %1
  ret i64 %add
}

; Function Attrs: mustprogress nounwind uwtable
define linkonce_odr dso_local noundef ptr @_ZN4absl13cord_internal7CordRep8externalEv(ptr noundef nonnull align 8 dereferenceable(16) %this) #7 comdat align 2 {
entry:
  %this.addr = alloca ptr, align 8
  store ptr %this, ptr %this.addr, align 8
  %this1 = load ptr, ptr %this.addr, align 8
  ret ptr %this1
}

; Function Attrs: mustprogress uwtable
define internal noundef i64 @_ZN4absl13cord_internal12_GLOBAL__N_16SizeOfINS0_11CordRepFlatEEEmPKT_(ptr noundef %rep) #4 {
entry:
  %rep.addr = alloca ptr, align 8
  store ptr %rep, ptr %rep.addr, align 8
  %0 = load ptr, ptr %rep.addr, align 8
  %call = call noundef i64 @_ZNK4absl13cord_internal11CordRepFlat13AllocatedSizeEv(ptr noundef nonnull align 8 dereferenceable(16) %0)
  ret i64 %call
}

; Function Attrs: mustprogress nounwind uwtable
define linkonce_odr dso_local noundef ptr @_ZN4absl13cord_internal7CordRep4flatEv(ptr noundef nonnull align 8 dereferenceable(16) %this) #7 comdat align 2 {
entry:
  %this.addr = alloca ptr, align 8
  store ptr %this, ptr %this.addr, align 8
  %this1 = load ptr, ptr %this.addr, align 8
  ret ptr %this1
}

; Function Attrs: mustprogress nounwind uwtable
define linkonce_odr dso_local noundef i64 @_ZNK4absl13cord_internal16RefcountAndFlags3GetEv(ptr noundef nonnull align 4 dereferenceable(4) %this) #7 comdat align 2 {
entry:
  %this.addr.i = alloca ptr, align 8
  %__m.addr.i = alloca i32, align 4
  %__b.i = alloca i32, align 4
  %atomic-temp.i = alloca i32, align 4
  %this.addr = alloca ptr, align 8
  store ptr %this, ptr %this.addr, align 8
  %this1 = load ptr, ptr %this.addr, align 8
  %count_ = getelementptr inbounds %"class.absl::cord_internal::RefcountAndFlags", ptr %this1, i32 0, i32 0
  store ptr %count_, ptr %this.addr.i, align 8
  store i32 2, ptr %__m.addr.i, align 4
  %this1.i = load ptr, ptr %this.addr.i, align 8
  %0 = load i32, ptr %__m.addr.i, align 4
  %call.i = call noundef i32 @_ZStanSt12memory_orderSt23__memory_order_modifier(i32 noundef %0, i32 noundef 65535)
  store i32 %call.i, ptr %__b.i, align 4
  %1 = load i32, ptr %__m.addr.i, align 4
  switch i32 %1, label %monotonic.i [
    i32 1, label %acquire.i
    i32 2, label %acquire.i
    i32 5, label %seqcst.i
  ]

monotonic.i:                                      ; preds = %entry
  %2 = load atomic i32, ptr %this1.i monotonic, align 4
  store i32 %2, ptr %atomic-temp.i, align 4
  br label %_ZNKSt13__atomic_baseIiE4loadESt12memory_order.exit

acquire.i:                                        ; preds = %entry, %entry
  %3 = load atomic i32, ptr %this1.i acquire, align 4
  store i32 %3, ptr %atomic-temp.i, align 4
  br label %_ZNKSt13__atomic_baseIiE4loadESt12memory_order.exit

seqcst.i:                                         ; preds = %entry
  %4 = load atomic i32, ptr %this1.i seq_cst, align 4
  store i32 %4, ptr %atomic-temp.i, align 4
  br label %_ZNKSt13__atomic_baseIiE4loadESt12memory_order.exit

_ZNKSt13__atomic_baseIiE4loadESt12memory_order.exit: ; preds = %seqcst.i, %acquire.i, %monotonic.i
  %5 = load i32, ptr %atomic-temp.i, align 4
  %shr = ashr i32 %5, 1
  %conv = sext i32 %shr to i64
  ret i64 %conv
}

; Function Attrs: mustprogress uwtable
define internal noundef double @_ZN4absl13cord_internal12_GLOBAL__N_113FairShareImplEPNS0_7CordRepEm(ptr noundef %rep, i64 noundef %ref) #4 {
entry:
  %rep.addr = alloca ptr, align 8
  %ref.addr = alloca i64, align 8
  %self = alloca double, align 8
  %children = alloca double, align 8
  %__range6 = alloca ptr, align 8
  %ref.tmp = alloca %"class.absl::Span", align 8
  %__begin6 = alloca ptr, align 8
  %__end6 = alloca ptr, align 8
  %edge = alloca ptr, align 8
  store ptr %rep, ptr %rep.addr, align 8
  store i64 %ref, ptr %ref.addr, align 8
  store double 0.000000e+00, ptr %self, align 8
  store double 0.000000e+00, ptr %children, align 8
  %0 = load ptr, ptr %rep.addr, align 8
  %refcount = getelementptr inbounds %"struct.absl::cord_internal::CordRep", ptr %0, i32 0, i32 1
  %call = call noundef i64 @_ZNK4absl13cord_internal16RefcountAndFlags3GetEv(ptr noundef nonnull align 4 dereferenceable(4) %refcount)
  %1 = load i64, ptr %ref.addr, align 8
  %mul = mul i64 %1, %call
  store i64 %mul, ptr %ref.addr, align 8
  %2 = load ptr, ptr %rep.addr, align 8
  %tag = getelementptr inbounds %"struct.absl::cord_internal::CordRep", ptr %2, i32 0, i32 2
  %3 = load i8, ptr %tag, align 4
  %conv = zext i8 %3 to i32
  %cmp = icmp sge i32 %conv, 6
  br i1 %cmp, label %if.then, label %if.else

if.then:                                          ; preds = %entry
  %4 = load ptr, ptr %rep.addr, align 8
  %call1 = call noundef ptr @_ZN4absl13cord_internal7CordRep4flatEv(ptr noundef nonnull align 8 dereferenceable(16) %4)
  %call2 = call noundef i64 @_ZN4absl13cord_internal12_GLOBAL__N_16SizeOfINS0_11CordRepFlatEEEmPKT_(ptr noundef %call1)
  %conv3 = uitofp i64 %call2 to double
  store double %conv3, ptr %self, align 8
  br label %if.end38

if.else:                                          ; preds = %entry
  %5 = load ptr, ptr %rep.addr, align 8
  %tag4 = getelementptr inbounds %"struct.absl::cord_internal::CordRep", ptr %5, i32 0, i32 2
  %6 = load i8, ptr %tag4, align 4
  %conv5 = zext i8 %6 to i32
  %cmp6 = icmp eq i32 %conv5, 5
  br i1 %cmp6, label %if.then7, label %if.else11

if.then7:                                         ; preds = %if.else
  %7 = load ptr, ptr %rep.addr, align 8
  %call8 = call noundef ptr @_ZN4absl13cord_internal7CordRep8externalEv(ptr noundef nonnull align 8 dereferenceable(16) %7)
  %call9 = call noundef i64 @_ZN4absl13cord_internal12_GLOBAL__N_16SizeOfINS0_15CordRepExternalEEEmPKT_(ptr noundef %call8)
  %conv10 = uitofp i64 %call9 to double
  store double %conv10, ptr %self, align 8
  br label %if.end37

if.else11:                                        ; preds = %if.else
  %8 = load ptr, ptr %rep.addr, align 8
  %tag12 = getelementptr inbounds %"struct.absl::cord_internal::CordRep", ptr %8, i32 0, i32 2
  %9 = load i8, ptr %tag12, align 4
  %conv13 = zext i8 %9 to i32
  %cmp14 = icmp eq i32 %conv13, 1
  br i1 %cmp14, label %if.then15, label %if.else21

if.then15:                                        ; preds = %if.else11
  %10 = load ptr, ptr %rep.addr, align 8
  %call16 = call noundef ptr @_ZN4absl13cord_internal7CordRep9substringEv(ptr noundef nonnull align 8 dereferenceable(16) %10)
  %call17 = call noundef i64 @_ZN4absl13cord_internal12_GLOBAL__N_16SizeOfINS0_16CordRepSubstringEEEmPKT_(ptr noundef %call16)
  %conv18 = uitofp i64 %call17 to double
  store double %conv18, ptr %self, align 8
  %11 = load ptr, ptr %rep.addr, align 8
  %call19 = call noundef ptr @_ZN4absl13cord_internal7CordRep9substringEv(ptr noundef nonnull align 8 dereferenceable(16) %11)
  %child = getelementptr inbounds %"struct.absl::cord_internal::CordRepSubstring", ptr %call19, i32 0, i32 2
  %12 = load ptr, ptr %child, align 8
  %13 = load i64, ptr %ref.addr, align 8
  %call20 = call noundef double @_ZN4absl13cord_internal12_GLOBAL__N_113FairShareImplEPNS0_7CordRepEm(ptr noundef %12, i64 noundef %13)
  store double %call20, ptr %children, align 8
  br label %if.end36

if.else21:                                        ; preds = %if.else11
  %14 = load ptr, ptr %rep.addr, align 8
  %tag22 = getelementptr inbounds %"struct.absl::cord_internal::CordRep", ptr %14, i32 0, i32 2
  %15 = load i8, ptr %tag22, align 4
  %conv23 = zext i8 %15 to i32
  %cmp24 = icmp eq i32 %conv23, 3
  br i1 %cmp24, label %if.then25, label %if.else35

if.then25:                                        ; preds = %if.else21
  %16 = load ptr, ptr %rep.addr, align 8
  %call26 = call noundef ptr @_ZN4absl13cord_internal7CordRep5btreeEv(ptr noundef nonnull align 8 dereferenceable(16) %16)
  %call27 = call noundef i64 @_ZN4absl13cord_internal12_GLOBAL__N_16SizeOfINS0_12CordRepBtreeEEEmPKT_(ptr noundef %call26)
  %conv28 = uitofp i64 %call27 to double
  store double %conv28, ptr %self, align 8
  %17 = load ptr, ptr %rep.addr, align 8
  %call29 = call noundef ptr @_ZN4absl13cord_internal7CordRep5btreeEv(ptr noundef nonnull align 8 dereferenceable(16) %17)
  %call30 = call { ptr, i64 } @_ZNK4absl13cord_internal12CordRepBtree5EdgesEv(ptr noundef nonnull align 8 dereferenceable(64) %call29)
  %18 = getelementptr inbounds { ptr, i64 }, ptr %ref.tmp, i32 0, i32 0
  %19 = extractvalue { ptr, i64 } %call30, 0
  store ptr %19, ptr %18, align 8
  %20 = getelementptr inbounds { ptr, i64 }, ptr %ref.tmp, i32 0, i32 1
  %21 = extractvalue { ptr, i64 } %call30, 1
  store i64 %21, ptr %20, align 8
  store ptr %ref.tmp, ptr %__range6, align 8
  %22 = load ptr, ptr %__range6, align 8
  %call31 = call noundef ptr @_ZNK4absl4SpanIKPNS_13cord_internal7CordRepEE5beginEv(ptr noundef nonnull align 8 dereferenceable(16) %22) #3
  store ptr %call31, ptr %__begin6, align 8
  %23 = load ptr, ptr %__range6, align 8
  %call32 = call noundef ptr @_ZNK4absl4SpanIKPNS_13cord_internal7CordRepEE3endEv(ptr noundef nonnull align 8 dereferenceable(16) %23) #3
  store ptr %call32, ptr %__end6, align 8
  br label %for.cond

for.cond:                                         ; preds = %for.inc, %if.then25
  %24 = load ptr, ptr %__begin6, align 8
  %25 = load ptr, ptr %__end6, align 8
  %cmp33 = icmp ne ptr %24, %25
  br i1 %cmp33, label %for.body, label %for.end

for.body:                                         ; preds = %for.cond
  %26 = load ptr, ptr %__begin6, align 8
  %27 = load ptr, ptr %26, align 8
  store ptr %27, ptr %edge, align 8
  %28 = load ptr, ptr %edge, align 8
  %29 = load i64, ptr %ref.addr, align 8
  %call34 = call noundef double @_ZN4absl13cord_internal12_GLOBAL__N_113FairShareImplEPNS0_7CordRepEm(ptr noundef %28, i64 noundef %29)
  %30 = load double, ptr %children, align 8
  %add = fadd double %30, %call34
  store double %add, ptr %children, align 8
  br label %for.inc

for.inc:                                          ; preds = %for.body
  %31 = load ptr, ptr %__begin6, align 8
  %incdec.ptr = getelementptr inbounds ptr, ptr %31, i32 1
  store ptr %incdec.ptr, ptr %__begin6, align 8
  br label %for.cond

for.end:                                          ; preds = %for.cond
  br label %if.end

if.else35:                                        ; preds = %if.else21
  br label %if.end

if.end:                                           ; preds = %if.else35, %for.end
  br label %if.end36

if.end36:                                         ; preds = %if.end, %if.then15
  br label %if.end37

if.end37:                                         ; preds = %if.end36, %if.then7
  br label %if.end38

if.end38:                                         ; preds = %if.end37, %if.then
  %32 = load double, ptr %self, align 8
  %33 = load i64, ptr %ref.addr, align 8
  %conv39 = uitofp i64 %33 to double
  %div = fdiv double %32, %conv39
  %34 = load double, ptr %children, align 8
  %add40 = fadd double %div, %34
  ret double %add40
}