; Function Attrs: mustprogress nofree nounwind memory(readwrite, inaccessiblemem: none) uwtable
define internal fastcc noundef double @_ZN4absl13cord_internal12_GLOBAL__N_113FairShareImplEPNS0_7CordRepEm(ptr noundef readonly %rep, i64 noundef %ref) unnamed_addr #14 {
entry:
  %refcount = getelementptr inbounds i8, ptr %rep, i64 8
  %0 = load atomic i32, ptr %refcount acquire, align 4
  %shr.i = ashr i32 %0, 1
  %conv.i = sext i32 %shr.i to i64
  %mul = mul i64 %conv.i, %ref
  %tag = getelementptr inbounds i8, ptr %rep, i64 12
  %1 = load i8, ptr %tag, align 4
  %cmp = icmp ugt i8 %1, 5
  br i1 %cmp, label %if.then, label %if.else

if.then:                                          ; preds = %entry
  %conv.i.i.i = zext i8 %1 to i32
  %cmp.i.i.i = icmp ult i8 %1, 67
  %cmp3.i.i.i = icmp ult i8 %1, -69
  %..i.i.i = select i1 %cmp3.i.i.i, i32 6, i32 12
  %.6.i.i.i = select i1 %cmp3.i.i.i, i32 -3712, i32 -753664
  %.sink5.i.i.i = select i1 %cmp.i.i.i, i32 3, i32 %..i.i.i
  %.sink.i.i.i = select i1 %cmp.i.i.i, i32 -16, i32 %.6.i.i.i
  %mul6.i.i.i = shl nuw nsw i32 %conv.i.i.i, %.sink5.i.i.i
  %sub8.i.i.i = add nsw i32 %mul6.i.i.i, %.sink.i.i.i
  %conv17.i.i.i = sext i32 %sub8.i.i.i to i64
  %conv3 = uitofp i64 %conv17.i.i.i to double
  br label %if.end38

if.else:                                          ; preds = %entry
  switch i8 %1, label %if.end38 [
    i8 5, label %if.then7
    i8 1, label %if.then15
    i8 3, label %if.then25
  ]

if.then7:                                         ; preds = %if.else
  %call8.val = load i64, ptr %rep, align 8
  %add.i = add i64 %call8.val, 40
  %conv10 = uitofp i64 %add.i to double
  br label %if.end38

if.then15:                                        ; preds = %if.else
  %child = getelementptr inbounds i8, ptr %rep, i64 24
  %2 = load ptr, ptr %child, align 8
  %call20 = tail call fastcc noundef double @_ZN4absl13cord_internal12_GLOBAL__N_113FairShareImplEPNS0_7CordRepEm(ptr noundef %2, i64 noundef %mul)
  br label %if.end38

if.then25:                                        ; preds = %if.else
  %edges_.i = getelementptr inbounds i8, ptr %rep, i64 16
  %arrayidx.i.i = getelementptr inbounds i8, ptr %rep, i64 14
  %3 = load i8, ptr %arrayidx.i.i, align 1
  %arrayidx.i.i.i = getelementptr inbounds i8, ptr %rep, i64 15
  %4 = load i8, ptr %arrayidx.i.i.i, align 1
  %conv.i.i.i18 = zext i8 %4 to i64
  %add.ptr.i19 = getelementptr inbounds ptr, ptr %edges_.i, i64 %conv.i.i.i18
  %cmp33.not21 = icmp eq i8 %3, %4
  br i1 %cmp33.not21, label %if.end38, label %for.body.preheader

for.body.preheader:                               ; preds = %if.then25
  %conv.i.i = zext i8 %3 to i64
  %add.ptr.i = getelementptr inbounds ptr, ptr %edges_.i, i64 %conv.i.i
  br label %for.body

for.body:                                         ; preds = %for.body.preheader, %for.body
  %__begin6.023 = phi ptr [ %incdec.ptr, %for.body ], [ %add.ptr.i, %for.body.preheader ]
  %children.022 = phi double [ %add, %for.body ], [ 0.000000e+00, %for.body.preheader ]
  %5 = load ptr, ptr %__begin6.023, align 8
  %call34 = tail call fastcc noundef double @_ZN4absl13cord_internal12_GLOBAL__N_113FairShareImplEPNS0_7CordRepEm(ptr noundef %5, i64 noundef %mul)
  %add = fadd double %children.022, %call34
  %incdec.ptr = getelementptr inbounds i8, ptr %__begin6.023, i64 8
  %cmp33.not = icmp eq ptr %incdec.ptr, %add.ptr.i19
  br i1 %cmp33.not, label %if.end38, label %for.body

if.end38:                                         ; preds = %for.body, %if.then25, %if.else, %if.then7, %if.then15, %if.then
  %children.1 = phi double [ 0.000000e+00, %if.then ], [ 0.000000e+00, %if.then7 ], [ %call20, %if.then15 ], [ 0.000000e+00, %if.else ], [ 0.000000e+00, %if.then25 ], [ %add, %for.body ]
  %self.0 = phi double [ %conv3, %if.then ], [ %conv10, %if.then7 ], [ 3.200000e+01, %if.then15 ], [ 0.000000e+00, %if.else ], [ 6.400000e+01, %if.then25 ], [ 6.400000e+01, %for.body ]
  %conv39 = uitofp i64 %mul to double
  %div = fdiv double %self.0, %conv39
  %add40 = fadd double %children.1, %div
  ret double %add40
}